target datalayout = "e-m:e-p270:32:32-p271:32:32-p272:64:64-i64:64-i128:128-f80:128-n8:16:32:64-S128"
target triple = "x86_64-pc-linux-gnu"

%"class.icu_77::UObject" = type { ptr }
%"class.icu_77::UnicodeString" = type { %"class.icu_77::Replaceable", %"union.icu_77::UnicodeString::StackBufferOrFields" }
%"class.icu_77::Replaceable" = type { %"class.icu_77::UObject" }
%"union.icu_77::UnicodeString::StackBufferOrFields" = type { %struct.anon.0, [32 x i8] }
%struct.anon.0 = type { i16, i32, i32, ptr }
%"class.icu_77::ConstChar16Ptr" = type { ptr }
%"class.icu_77::Char16Ptr" = type { ptr }

; Function Attrs: inlinehint mustprogress nounwind uwtable
define linkonce_odr void @_ZN6icu_779Char16PtrD2Ev(ptr noundef nonnull align 8 dereferenceable(8) %0) unnamed_addr #5 comdat align 2 {
  %2 = alloca ptr, align 8
  store ptr %0, ptr %2, align 8, !tbaa !26
  %3 = load ptr, ptr %2, align 8
  %4 = getelementptr inbounds nuw %"class.icu_77::Char16Ptr", ptr %3, i32 0, i32 0
  %5 = load ptr, ptr %4, align 8, !tbaa !28
  call void asm sideeffect "", "rm,~{memory},~{dirflag},~{fpsr},~{flags}"(ptr %5) #7, !srcloc !30
  ret void
}

; Function Attrs: inlinehint mustprogress nounwind uwtable
define linkonce_odr void @_ZN6icu_779Char16PtrC2EPDs(ptr noundef nonnull align 8 dereferenceable(8) %0, ptr noundef %1) unnamed_addr #5 comdat align 2 {
  %3 = alloca ptr, align 8
  %4 = alloca ptr, align 8
  store ptr %0, ptr %3, align 8, !tbaa !26
  store ptr %1, ptr %4, align 8, !tbaa !15
  %5 = load ptr, ptr %3, align 8
  %6 = getelementptr inbounds nuw %"class.icu_77::Char16Ptr", ptr %5, i32 0, i32 0
  %7 = load ptr, ptr %4, align 8, !tbaa !15
  store ptr %7, ptr %6, align 8, !tbaa !28
  ret void
}

; Function Attrs: inlinehint mustprogress nounwind uwtable
define linkonce_odr void @_ZN6icu_7714ConstChar16PtrD2Ev(ptr noundef nonnull align 8 dereferenceable(8) %0) unnamed_addr #5 comdat align 2 {
  %2 = alloca ptr, align 8
  store ptr %0, ptr %2, align 8, !tbaa !21
  %3 = load ptr, ptr %2, align 8
  %4 = getelementptr inbounds nuw %"class.icu_77::ConstChar16Ptr", ptr %3, i32 0, i32 0
  %5 = load ptr, ptr %4, align 8, !tbaa !23
  call void asm sideeffect "", "rm,~{memory},~{dirflag},~{fpsr},~{flags}"(ptr %5) #7, !srcloc !25
  ret void
}

; Function Attrs: inlinehint mustprogress nounwind uwtable
define linkonce_odr void @_ZN6icu_7714ConstChar16PtrC2EPKDs(ptr noundef nonnull align 8 dereferenceable(8) %0, ptr noundef %1) unnamed_addr #5 comdat align 2 {
  %3 = alloca ptr, align 8
  %4 = alloca ptr, align 8
  store ptr %0, ptr %3, align 8, !tbaa !21
  store ptr %1, ptr %4, align 8, !tbaa !15
  %5 = load ptr, ptr %3, align 8
  %6 = getelementptr inbounds nuw %"class.icu_77::ConstChar16Ptr", ptr %5, i32 0, i32 0
  %7 = load ptr, ptr %4, align 8, !tbaa !15
  store ptr %7, ptr %6, align 8, !tbaa !23
  ret void
}

; Function Attrs: inlinehint mustprogress nounwind uwtable
define internal noundef signext i8 @_ZL9U_FAILURE10UErrorCode(i32 noundef %0) #5 {
  %2 = alloca i32, align 4
  store i32 %0, ptr %2, align 4, !tbaa !13
  %3 = load i32, ptr %2, align 4, !tbaa !13
  %4 = icmp sgt i32 %3, 0
  %5 = zext i1 %4 to i8
  ret i8 %5
}

; Function Attrs: mustprogress uwtable
define i32 @udatpg_replaceFieldTypesWithOptions_77(ptr noundef %0, ptr noundef %1, i32 noundef %2, ptr noundef %3, i32 noundef %4, i32 noundef %5, ptr noundef %6, i32 noundef %7, ptr noundef %8) #0 personality ptr @__gxx_personality_v0 {
  %10 = alloca i32, align 4
  %11 = alloca ptr, align 8
  %12 = alloca ptr, align 8
  %13 = alloca i32, align 4
  %14 = alloca ptr, align 8
  %15 = alloca i32, align 4
  %16 = alloca i32, align 4
  %17 = alloca ptr, align 8
  %18 = alloca i32, align 4
  %19 = alloca ptr, align 8
  %20 = alloca %"class.icu_77::UnicodeString", align 8
  %21 = alloca %"class.icu_77::ConstChar16Ptr", align 8
  %22 = alloca ptr, align 8
  %23 = alloca i32, align 4
  %24 = alloca %"class.icu_77::UnicodeString", align 8
  %25 = alloca %"class.icu_77::ConstChar16Ptr", align 8
  %26 = alloca %"class.icu_77::UnicodeString", align 8
  %27 = alloca %"class.icu_77::Char16Ptr", align 8
  store ptr %0, ptr %11, align 8, !tbaa !9
  store ptr %1, ptr %12, align 8, !tbaa !15
  store i32 %2, ptr %13, align 4, !tbaa !17
  store ptr %3, ptr %14, align 8, !tbaa !15
  store i32 %4, ptr %15, align 4, !tbaa !17
  store i32 %5, ptr %16, align 4, !tbaa !19
  store ptr %6, ptr %17, align 8, !tbaa !15
  store i32 %7, ptr %18, align 4, !tbaa !17
  store ptr %8, ptr %19, align 8, !tbaa !8
  %28 = load ptr, ptr %19, align 8, !tbaa !8
  %29 = load i32, ptr %28, align 4, !tbaa !13
  %30 = call noundef signext i8 @_ZL9U_FAILURE10UErrorCode(i32 noundef %29)
  %31 = icmp ne i8 %30, 0
  br i1 %31, label %32, label %33

32:                                               ; preds = %9
  store i32 0, ptr %10, align 4
  br label %99

33:                                               ; preds = %9
  %34 = load ptr, ptr %12, align 8, !tbaa !15
  %35 = icmp eq ptr %34, null
  br i1 %35, label %36, label %39

36:                                               ; preds = %33
  %37 = load i32, ptr %13, align 4, !tbaa !17
  %38 = icmp ne i32 %37, 0
  br i1 %38, label %45, label %39

39:                                               ; preds = %36, %33
  %40 = load ptr, ptr %14, align 8, !tbaa !15
  %41 = icmp eq ptr %40, null
  br i1 %41, label %42, label %47

42:                                               ; preds = %39
  %43 = load i32, ptr %15, align 4, !tbaa !17
  %44 = icmp ne i32 %43, 0
  br i1 %44, label %45, label %47

45:                                               ; preds = %42, %36
  %46 = load ptr, ptr %19, align 8, !tbaa !8
  store i32 1, ptr %46, align 4, !tbaa !13
  store i32 0, ptr %10, align 4
  br label %99

47:                                               ; preds = %42, %39
  call void @llvm.lifetime.start.p0(i64 64, ptr %20) #7
  %48 = load i32, ptr %13, align 4, !tbaa !17
  %49 = icmp slt i32 %48, 0
  %50 = zext i1 %49 to i8
  %51 = load ptr, ptr %12, align 8, !tbaa !15
  call void @_ZN6icu_7714ConstChar16PtrC2EPKDs(ptr noundef nonnull align 8 dereferenceable(8) %21, ptr noundef %51)
  %52 = load i32, ptr %13, align 4, !tbaa !17
  invoke void @_ZN6icu_7713UnicodeStringC1EaNS_14ConstChar16PtrEi(ptr noundef nonnull align 8 dereferenceable(64) %20, i8 noundef signext %50, ptr noundef %21, i32 noundef %52)
          to label %53 unwind label %71

53:                                               ; preds = %47
  call void @_ZN6icu_7714ConstChar16PtrD2Ev(ptr noundef nonnull align 8 dereferenceable(8) %21) #7
  call void @llvm.lifetime.start.p0(i64 64, ptr %24) #7
  %54 = load i32, ptr %15, align 4, !tbaa !17
  %55 = icmp slt i32 %54, 0
  %56 = zext i1 %55 to i8
  %57 = load ptr, ptr %14, align 8, !tbaa !15
  invoke void @_ZN6icu_7714ConstChar16PtrC2EPKDs(ptr noundef nonnull align 8 dereferenceable(8) %25, ptr noundef %57)
          to label %58 unwind label %75

58:                                               ; preds = %53
  %59 = load i32, ptr %15, align 4, !tbaa !17
  invoke void @_ZN6icu_7713UnicodeStringC1EaNS_14ConstChar16PtrEi(ptr noundef nonnull align 8 dereferenceable(64) %24, i8 noundef signext %56, ptr noundef %25, i32 noundef %59)
          to label %60 unwind label %79

60:                                               ; preds = %58
  call void @_ZN6icu_7714ConstChar16PtrD2Ev(ptr noundef nonnull align 8 dereferenceable(8) %25) #7
  call void @llvm.lifetime.start.p0(i64 64, ptr %26) #7
  %61 = load ptr, ptr %11, align 8, !tbaa !9
  %62 = load i32, ptr %16, align 4, !tbaa !19
  %63 = load ptr, ptr %19, align 8, !tbaa !8
  invoke void @_ZN6icu_7724DateTimePatternGenerator17replaceFieldTypesERKNS_13UnicodeStringES3_28UDateTimePatternMatchOptionsR10UErrorCode(ptr dead_on_unwind writable sret(%"class.icu_77::UnicodeString") align 8 %26, ptr noundef nonnull align 8 dereferenceable(4796) %61, ptr noundef nonnull align 8 dereferenceable(64) %20, ptr noundef nonnull align 8 dereferenceable(64) %24, i32 noundef %62, ptr noundef nonnull align 4 dereferenceable(4) %63)
          to label %64 unwind label %83

64:                                               ; preds = %60
  %65 = load ptr, ptr %17, align 8, !tbaa !15
  invoke void @_ZN6icu_779Char16PtrC2EPDs(ptr noundef nonnull align 8 dereferenceable(8) %27, ptr noundef %65)
          to label %66 unwind label %87

66:                                               ; preds = %64
  %67 = load i32, ptr %18, align 4, !tbaa !17
  %68 = load ptr, ptr %19, align 8, !tbaa !8
  %69 = invoke noundef i32 @_ZNK6icu_7713UnicodeString7extractENS_9Char16PtrEiR10UErrorCode(ptr noundef nonnull align 8 dereferenceable(64) %26, ptr noundef %27, i32 noundef %67, ptr noundef nonnull align 4 dereferenceable(4) %68)
          to label %70 unwind label %91

70:                                               ; preds = %66
  store i32 %69, ptr %10, align 4
  call void @_ZN6icu_779Char16PtrD2Ev(ptr noundef nonnull align 8 dereferenceable(8) %27) #7
  call void @_ZN6icu_7713UnicodeStringD1Ev(ptr noundef nonnull align 8 dereferenceable(64) %26) #7
  call void @llvm.lifetime.end.p0(i64 64, ptr %26) #7
  call void @_ZN6icu_7713UnicodeStringD1Ev(ptr noundef nonnull align 8 dereferenceable(64) %24) #7
  call void @llvm.lifetime.end.p0(i64 64, ptr %24) #7
  call void @_ZN6icu_7713UnicodeStringD1Ev(ptr noundef nonnull align 8 dereferenceable(64) %20) #7
  call void @llvm.lifetime.end.p0(i64 64, ptr %20) #7
  br label %99

71:                                               ; preds = %47
  %72 = landingpad { ptr, i32 }
          cleanup
  %73 = extractvalue { ptr, i32 } %72, 0
  store ptr %73, ptr %22, align 8
  %74 = extractvalue { ptr, i32 } %72, 1
  store i32 %74, ptr %23, align 4
  call void @_ZN6icu_7714ConstChar16PtrD2Ev(ptr noundef nonnull align 8 dereferenceable(8) %21) #7
  br label %98

75:                                               ; preds = %53
  %76 = landingpad { ptr, i32 }
          cleanup
  %77 = extractvalue { ptr, i32 } %76, 0
  store ptr %77, ptr %22, align 8
  %78 = extractvalue { ptr, i32 } %76, 1
  store i32 %78, ptr %23, align 4
  br label %97

79:                                               ; preds = %58
  %80 = landingpad { ptr, i32 }
          cleanup
  %81 = extractvalue { ptr, i32 } %80, 0
  store ptr %81, ptr %22, align 8
  %82 = extractvalue { ptr, i32 } %80, 1
  store i32 %82, ptr %23, align 4
  call void @_ZN6icu_7714ConstChar16PtrD2Ev(ptr noundef nonnull align 8 dereferenceable(8) %25) #7
  br label %97

83:                                               ; preds = %60
  %84 = landingpad { ptr, i32 }
          cleanup
  %85 = extractvalue { ptr, i32 } %84, 0
  store ptr %85, ptr %22, align 8
  %86 = extractvalue { ptr, i32 } %84, 1
  store i32 %86, ptr %23, align 4
  br label %96

87:                                               ; preds = %64
  %88 = landingpad { ptr, i32 }
          cleanup
  %89 = extractvalue { ptr, i32 } %88, 0
  store ptr %89, ptr %22, align 8
  %90 = extractvalue { ptr, i32 } %88, 1
  store i32 %90, ptr %23, align 4
  br label %95

91:                                               ; preds = %66
  %92 = landingpad { ptr, i32 }
          cleanup
  %93 = extractvalue { ptr, i32 } %92, 0
  store ptr %93, ptr %22, align 8
  %94 = extractvalue { ptr, i32 } %92, 1
  store i32 %94, ptr %23, align 4
  call void @_ZN6icu_779Char16PtrD2Ev(ptr noundef nonnull align 8 dereferenceable(8) %27) #7
  br label %95

95:                                               ; preds = %91, %87
  call void @_ZN6icu_7713UnicodeStringD1Ev(ptr noundef nonnull align 8 dereferenceable(64) %26) #7
  br label %96

96:                                               ; preds = %95, %83
  call void @llvm.lifetime.end.p0(i64 64, ptr %26) #7
  call void @_ZN6icu_7713UnicodeStringD1Ev(ptr noundef nonnull align 8 dereferenceable(64) %24) #7
  br label %97

97:                                               ; preds = %96, %79, %75
  call void @llvm.lifetime.end.p0(i64 64, ptr %24) #7
  call void @_ZN6icu_7713UnicodeStringD1Ev(ptr noundef nonnull align 8 dereferenceable(64) %20) #7
  br label %98

98:                                               ; preds = %97, %71
  call void @llvm.lifetime.end.p0(i64 64, ptr %20) #7
  br label %101

99:                                               ; preds = %70, %45, %32
  %100 = load i32, ptr %10, align 4
  ret i32 %100

101:                                              ; preds = %98
  %102 = load ptr, ptr %22, align 8
  %103 = load i32, ptr %23, align 4
  %104 = insertvalue { ptr, i32 } poison, ptr %102, 0
  %105 = insertvalue { ptr, i32 } %104, i32 %103, 1
  resume { ptr, i32 } %105
}