; Function Attrs: mustprogress uwtable
define noundef i32 @udatpg_replaceFieldTypesWithOptions_77(ptr noundef %0, ptr noundef %1, i32 noundef %2, ptr noundef %3, i32 noundef %4, i32 noundef %5, ptr noundef %6, i32 noundef %7, ptr noundef %8) local_unnamed_addr #0 personality ptr @__gxx_personality_v0 {
  %10 = alloca %"class.icu_77::UnicodeString", align 8
  %11 = alloca %"class.icu_77::ConstChar16Ptr", align 8
  %12 = alloca %"class.icu_77::UnicodeString", align 8
  %13 = alloca %"class.icu_77::ConstChar16Ptr", align 8
  %14 = alloca %"class.icu_77::UnicodeString", align 8
  %15 = alloca %"class.icu_77::Char16Ptr", align 8
  %16 = load i32, ptr %8, align 4, !tbaa !6
  %17 = icmp slt i32 %16, 1
  br i1 %17, label %18, label %50

18:                                               ; preds = %9
  %19 = icmp eq ptr %1, null
  %20 = icmp ne i32 %2, 0
  %or.cond = and i1 %19, %20
  br i1 %or.cond, label %24, label %21

21:                                               ; preds = %18
  %22 = icmp eq ptr %3, null
  %23 = icmp ne i32 %4, 0
  %or.cond3 = and i1 %22, %23
  br i1 %or.cond3, label %24, label %25

24:                                               ; preds = %21, %18
  store i32 1, ptr %8, align 4, !tbaa !6
  br label %50

25:                                               ; preds = %21
  call void @llvm.lifetime.start.p0(i64 64, ptr nonnull %10) #5
  %.lobit = lshr i32 %2, 31
  %26 = trunc nuw nsw i32 %.lobit to i8
  store ptr %1, ptr %11, align 8, !tbaa !9
  invoke void @_ZN6icu_7713UnicodeStringC1EaNS_14ConstChar16PtrEi(ptr noundef nonnull align 8 dereferenceable(64) %10, i8 noundef signext %26, ptr noundef nonnull %11, i32 noundef %2)
          to label %27 unwind label %36

27:                                               ; preds = %25
  %28 = load ptr, ptr %11, align 8, !tbaa !9
  call void asm sideeffect "", "rm,~{memory},~{dirflag},~{fpsr},~{flags}"(ptr %28) #5, !srcloc !13
  call void @llvm.lifetime.start.p0(i64 64, ptr nonnull %12) #5
  %.lobit27 = lshr i32 %4, 31
  %29 = trunc nuw nsw i32 %.lobit27 to i8
  store ptr %3, ptr %13, align 8, !tbaa !9
  invoke void @_ZN6icu_7713UnicodeStringC1EaNS_14ConstChar16PtrEi(ptr noundef nonnull align 8 dereferenceable(64) %12, i8 noundef signext %29, ptr noundef nonnull %13, i32 noundef %4)
          to label %30 unwind label %39

30:                                               ; preds = %27
  %31 = load ptr, ptr %13, align 8, !tbaa !9
  call void asm sideeffect "", "rm,~{memory},~{dirflag},~{fpsr},~{flags}"(ptr %31) #5, !srcloc !13
  call void @llvm.lifetime.start.p0(i64 64, ptr nonnull %14) #5
  invoke void @_ZN6icu_7724DateTimePatternGenerator17replaceFieldTypesERKNS_13UnicodeStringES3_28UDateTimePatternMatchOptionsR10UErrorCode(ptr dead_on_unwind nonnull writable sret(%"class.icu_77::UnicodeString") align 8 %14, ptr noundef nonnull align 8 dereferenceable(4796) %0, ptr noundef nonnull align 8 dereferenceable(64) %10, ptr noundef nonnull align 8 dereferenceable(64) %12, i32 noundef %5, ptr noundef nonnull align 4 dereferenceable(4) %8)
          to label %32 unwind label %42

32:                                               ; preds = %30
  store ptr %6, ptr %15, align 8, !tbaa !14
  %33 = invoke noundef i32 @_ZNK6icu_7713UnicodeString7extractENS_9Char16PtrEiR10UErrorCode(ptr noundef nonnull align 8 dereferenceable(64) %14, ptr noundef nonnull %15, i32 noundef %7, ptr noundef nonnull align 4 dereferenceable(4) %8)
          to label %34 unwind label %44

34:                                               ; preds = %32
  %35 = load ptr, ptr %15, align 8, !tbaa !14
  call void asm sideeffect "", "rm,~{memory},~{dirflag},~{fpsr},~{flags}"(ptr %35) #5, !srcloc !16
  call void @_ZN6icu_7713UnicodeStringD1Ev(ptr noundef nonnull align 8 dereferenceable(64) %14) #5
  call void @llvm.lifetime.end.p0(i64 64, ptr nonnull %14) #5
  call void @_ZN6icu_7713UnicodeStringD1Ev(ptr noundef nonnull align 8 dereferenceable(64) %12) #5
  call void @llvm.lifetime.end.p0(i64 64, ptr nonnull %12) #5
  call void @_ZN6icu_7713UnicodeStringD1Ev(ptr noundef nonnull align 8 dereferenceable(64) %10) #5
  call void @llvm.lifetime.end.p0(i64 64, ptr nonnull %10) #5
  br label %50

36:                                               ; preds = %25
  %37 = landingpad { ptr, i32 }
          cleanup
  %38 = load ptr, ptr %11, align 8, !tbaa !9
  call void asm sideeffect "", "rm,~{memory},~{dirflag},~{fpsr},~{flags}"(ptr %38) #5, !srcloc !13
  br label %49

39:                                               ; preds = %27
  %40 = landingpad { ptr, i32 }
          cleanup
  %41 = load ptr, ptr %13, align 8, !tbaa !9
  call void asm sideeffect "", "rm,~{memory},~{dirflag},~{fpsr},~{flags}"(ptr %41) #5, !srcloc !13
  br label %48

42:                                               ; preds = %30
  %43 = landingpad { ptr, i32 }
          cleanup
  br label %47

44:                                               ; preds = %32
  %45 = landingpad { ptr, i32 }
          cleanup
  %46 = load ptr, ptr %15, align 8, !tbaa !14
  call void asm sideeffect "", "rm,~{memory},~{dirflag},~{fpsr},~{flags}"(ptr %46) #5, !srcloc !16
  call void @_ZN6icu_7713UnicodeStringD1Ev(ptr noundef nonnull align 8 dereferenceable(64) %14) #5
  br label %47

47:                                               ; preds = %44, %42
  %.pn = phi { ptr, i32 } [ %45, %44 ], [ %43, %42 ]
  call void @llvm.lifetime.end.p0(i64 64, ptr nonnull %14) #5
  call void @_ZN6icu_7713UnicodeStringD1Ev(ptr noundef nonnull align 8 dereferenceable(64) %12) #5
  br label %48

48:                                               ; preds = %47, %39
  %.pn.pn = phi { ptr, i32 } [ %.pn, %47 ], [ %40, %39 ]
  call void @llvm.lifetime.end.p0(i64 64, ptr nonnull %12) #5
  call void @_ZN6icu_7713UnicodeStringD1Ev(ptr noundef nonnull align 8 dereferenceable(64) %10) #5
  br label %49

49:                                               ; preds = %48, %36
  %.pn.pn.pn = phi { ptr, i32 } [ %.pn.pn, %48 ], [ %37, %36 ]
  call void @llvm.lifetime.end.p0(i64 64, ptr nonnull %10) #5
  resume { ptr, i32 } %.pn.pn.pn

50:                                               ; preds = %9, %34, %24
  %.026 = phi i32 [ 0, %24 ], [ %33, %34 ], [ 0, %9 ]
  ret i32 %.026
}